(dp0
S'installer_version'
p1
S'0.14.0'
p2
sS'name'
p3
S'xbmcswift2'
p4
sS'repository'
p5
S'repository.xbmc4xbox'
p6
sS'version'
p7
S'2.4.0'
p8
sS'date'
p9
cdatetime
datetime
p10
(S'\x07\xdf\x0b\n\x0e\x142\x06|('
p11
tp12
Rp13
sS'id'
p14
S'script.module.xbmcswift2'
p15
s.