(dp0
S'installer_version'
p1
S'0.14.0'
p2
sS'name'
p3
S'xbmcswift'
p4
sS'repository'
p5
S'repository.xbmc4xbox'
p6
sS'version'
p7
S'0.2.2'
p8
sS'date'
p9
cdatetime
datetime
p10
(S'\x07\xdf\x0b\n\x0e\x14#\x06\x06\xf8'
p11
tp12
Rp13
sS'id'
p14
S'script.module.xbmcswift'
p15
s.